; Function Attrs: mustprogress uwtable
define hidden void @_ZN2cv3dnn14dnn4_v202412236getMatERNS_3MatERKNS_11_InputArrayENS_10AccessFlagE(ptr noundef nonnull align 8 dereferenceable(96) %0, ptr noundef nonnull align 8 dereferenceable(24) %1, i32 %2) local_unnamed_addr #6 personality ptr @__gxx_personality_v0 {
  %4 = alloca %"class.cv::Mat", align 8
  %5 = alloca %"class.cv::Mat", align 8
  %6 = tail call noundef i32 @_ZNK2cv11_InputArray4kindEv(ptr noundef nonnull align 8 dereferenceable(24) %1)
  %7 = icmp eq i32 %6, 655360
  br i1 %7, label %8, label %19

8:                                                ; preds = %3
  call void @llvm.lifetime.start.p0(i64 96, ptr nonnull %4) #21
  %9 = tail call noundef i32 @_ZNK2cv11_InputArray4kindEv(ptr noundef nonnull align 8 dereferenceable(24) %1), !noalias !25
  %10 = icmp eq i32 %9, 65536
  br i1 %10, label %11, label %14

11:                                               ; preds = %8
  %12 = getelementptr inbounds nuw i8, ptr %1, i64 8
  %13 = load ptr, ptr %12, align 8, !tbaa !28, !noalias !25
  call void @_ZN2cv3MatC1ERKS0_(ptr noundef nonnull align 8 dereferenceable(96) %4, ptr noundef nonnull align 8 dereferenceable(96) %13)
  br label %_ZNK2cv11_InputArray6getMatEi.exit

14:                                               ; preds = %8
  call void @_ZNK2cv11_InputArray7getMat_Ei(ptr dead_on_unwind nonnull writable sret(%"class.cv::Mat") align 8 %4, ptr noundef nonnull align 8 dereferenceable(24) %1, i32 noundef -1)
  br label %_ZNK2cv11_InputArray6getMatEi.exit

_ZNK2cv11_InputArray6getMatEi.exit:               ; preds = %11, %14
  %15 = invoke noundef nonnull align 8 dereferenceable(96) ptr @_ZN2cv3MataSEOS0_(ptr noundef nonnull align 8 dereferenceable(96) %0, ptr noundef nonnull align 8 dereferenceable(96) %4)
          to label %16 unwind label %17

16:                                               ; preds = %_ZNK2cv11_InputArray6getMatEi.exit
  call void @_ZN2cv3MatD1Ev(ptr noundef nonnull align 8 dereferenceable(96) %4) #21
  call void @llvm.lifetime.end.p0(i64 96, ptr nonnull %4) #21
  br label %33

17:                                               ; preds = %_ZNK2cv11_InputArray6getMatEi.exit
  %18 = landingpad { ptr, i32 }
          cleanup
  call void @_ZN2cv3MatD1Ev(ptr noundef nonnull align 8 dereferenceable(96) %4) #21
  call void @llvm.lifetime.end.p0(i64 96, ptr nonnull %4) #21
  br label %34

19:                                               ; preds = %3
  %20 = tail call noundef i32 @_ZNK2cv11_InputArray4kindEv(ptr noundef nonnull align 8 dereferenceable(24) %1)
  %21 = icmp eq i32 %20, 65536
  br i1 %21, label %22, label %33

22:                                               ; preds = %19
  call void @llvm.lifetime.start.p0(i64 96, ptr nonnull %5) #21
  %23 = tail call noundef i32 @_ZNK2cv11_InputArray4kindEv(ptr noundef nonnull align 8 dereferenceable(24) %1), !noalias !31
  %24 = icmp eq i32 %23, 65536
  br i1 %24, label %25, label %28

25:                                               ; preds = %22
  %26 = getelementptr inbounds nuw i8, ptr %1, i64 8
  %27 = load ptr, ptr %26, align 8, !tbaa !28, !noalias !31
  call void @_ZN2cv3MatC1ERKS0_(ptr noundef nonnull align 8 dereferenceable(96) %5, ptr noundef nonnull align 8 dereferenceable(96) %27)
  br label %_ZNK2cv11_InputArray6getMatEi.exit9

28:                                               ; preds = %22
  call void @_ZNK2cv11_InputArray7getMat_Ei(ptr dead_on_unwind nonnull writable sret(%"class.cv::Mat") align 8 %5, ptr noundef nonnull align 8 dereferenceable(24) %1, i32 noundef -1)
  br label %_ZNK2cv11_InputArray6getMatEi.exit9

_ZNK2cv11_InputArray6getMatEi.exit9:              ; preds = %25, %28
  %29 = invoke noundef nonnull align 8 dereferenceable(96) ptr @_ZN2cv3MataSEOS0_(ptr noundef nonnull align 8 dereferenceable(96) %0, ptr noundef nonnull align 8 dereferenceable(96) %5)
          to label %30 unwind label %31

30:                                               ; preds = %_ZNK2cv11_InputArray6getMatEi.exit9
  call void @_ZN2cv3MatD1Ev(ptr noundef nonnull align 8 dereferenceable(96) %5) #21
  call void @llvm.lifetime.end.p0(i64 96, ptr nonnull %5) #21
  br label %33

31:                                               ; preds = %_ZNK2cv11_InputArray6getMatEi.exit9
  %32 = landingpad { ptr, i32 }
          cleanup
  call void @_ZN2cv3MatD1Ev(ptr noundef nonnull align 8 dereferenceable(96) %5) #21
  call void @llvm.lifetime.end.p0(i64 96, ptr nonnull %5) #21
  br label %34

33:                                               ; preds = %19, %30, %16
  ret void

34:                                               ; preds = %31, %17
  %.pn = phi { ptr, i32 } [ %18, %17 ], [ %32, %31 ]
  resume { ptr, i32 } %.pn
}